target datalayout = "e-m:e-p270:32:32-p271:32:32-p272:64:64-i64:64-i128:128-f80:128-n8:16:32:64-S128"
target triple = "x86_64-pc-linux-gnu"

@.str.192 = private unnamed_addr constant [27 x i8] c"Failed to serialize group\0A\00", align 1
@.str.193 = private unnamed_addr constant [3 x i8] c"%s\00", align 1

; Function Attrs: nounwind uwtable
define internal i32 @of_serialize_options(ptr noundef %0, ptr noundef %1, ptr noundef %2) #0 {
  %4 = alloca i32, align 4
  %5 = alloca ptr, align 8
  %6 = alloca ptr, align 8
  %7 = alloca ptr, align 8
  %8 = alloca ptr, align 8
  %9 = alloca i32, align 4
  %10 = alloca i32, align 4
  store ptr %0, ptr %5, align 8, !tbaa !34
  store ptr %1, ptr %6, align 8, !tbaa !75
  store ptr %2, ptr %7, align 8, !tbaa !346
  call void @llvm.lifetime.start.p0(i64 8, ptr %8) #12
  call void @llvm.lifetime.start.p0(i64 4, ptr %9) #12
  %11 = load ptr, ptr %6, align 8, !tbaa !75
  %12 = call i32 @av_opt_serialize(ptr noundef %11, i32 noundef 0, i32 noundef 5, ptr noundef %8, i8 noundef signext 61, i8 noundef signext 58)
  store i32 %12, ptr %9, align 4, !tbaa !4
  %13 = load i32, ptr %9, align 4, !tbaa !4
  %14 = icmp slt i32 %13, 0
  br i1 %14, label %15, label %18

15:                                               ; preds = %3
  %16 = load ptr, ptr %5, align 8, !tbaa !34
  call void (ptr, i32, ptr, ...) @av_log(ptr noundef %16, i32 noundef 16, ptr noundef @.str.192)
  %17 = load i32, ptr %9, align 4, !tbaa !4
  store i32 %17, ptr %4, align 4
  store i32 1, ptr %10, align 4
  br label %26

18:                                               ; preds = %3
  %19 = load ptr, ptr %7, align 8, !tbaa !346
  %20 = load ptr, ptr %8, align 8, !tbaa !15
  call void (ptr, ptr, ...) @av_bprintf(ptr noundef %19, ptr noundef @.str.193, ptr noundef %20)
  %21 = load ptr, ptr %8, align 8, !tbaa !15
  %22 = call i64 @strlen(ptr noundef %21) #13
  %23 = trunc i64 %22 to i32
  store i32 %23, ptr %9, align 4, !tbaa !4
  %24 = load ptr, ptr %8, align 8, !tbaa !15
  call void @av_free(ptr noundef %24)
  %25 = load i32, ptr %9, align 4, !tbaa !4
  store i32 %25, ptr %4, align 4
  store i32 1, ptr %10, align 4
  br label %26

26:                                               ; preds = %18, %15
  call void @llvm.lifetime.end.p0(i64 4, ptr %9) #12
  call void @llvm.lifetime.end.p0(i64 8, ptr %8) #12
  %27 = load i32, ptr %4, align 4
  ret i32 %27
}