; Function Attrs: nounwind uwtable
define internal fastcc i32 @of_serialize_options(ptr noundef nonnull %0, ptr noundef %1, ptr noundef nonnull %2) unnamed_addr #0 {
  %4 = alloca ptr, align 8
  call void @llvm.lifetime.start.p0(i64 8, ptr nonnull %4) #16
  %5 = call i32 @av_opt_serialize(ptr noundef %1, i32 noundef 0, i32 noundef 5, ptr noundef nonnull %4, i8 noundef signext 61, i8 noundef signext 58) #16
  %6 = icmp slt i32 %5, 0
  br i1 %6, label %7, label %8

7:                                                ; preds = %3
  call void (ptr, i32, ptr, ...) @av_log(ptr noundef nonnull %0, i32 noundef 16, ptr noundef nonnull @.str.192) #16
  br label %13

8:                                                ; preds = %3
  %9 = load ptr, ptr %4, align 8, !tbaa !139
  call void (ptr, ptr, ...) @av_bprintf(ptr noundef nonnull %2, ptr noundef nonnull @.str.193, ptr noundef %9) #16
  %10 = load ptr, ptr %4, align 8, !tbaa !139
  %11 = call i64 @strlen(ptr noundef nonnull dereferenceable(1) %10) #17
  %12 = trunc i64 %11 to i32
  call void @av_free(ptr noundef nonnull %10) #16
  br label %13

13:                                               ; preds = %8, %7
  %.0 = phi i32 [ %5, %7 ], [ %12, %8 ]
  call void @llvm.lifetime.end.p0(i64 8, ptr nonnull %4) #16
  ret i32 %.0
}